target datalayout = "e-m:e-p270:32:32-p271:32:32-p272:64:64-i64:64-i128:128-f80:128-n8:16:32:64-S128"
target triple = "x86_64-pc-linux-gnu"

; Function Attrs: nounwind uwtable
define hidden i32 @ssl_verify_alarm_type(i64 noundef %0) #0 {
  %2 = alloca i64, align 8
  %3 = alloca i32, align 4
  store i64 %0, ptr %2, align 8, !tbaa !78
  call void @llvm.lifetime.start.p0(i64 4, ptr %3) #6
  %4 = load i64, ptr %2, align 8, !tbaa !78
  switch i64 %4, label %14 [
    i64 2, label %5
    i64 3, label %5
    i64 33, label %5
    i64 4, label %6
    i64 5, label %6
    i64 6, label %6
    i64 13, label %6
    i64 14, label %6
    i64 15, label %6
    i64 16, label %6
    i64 9, label %6
    i64 11, label %6
    i64 27, label %6
    i64 28, label %6
    i64 7, label %7
    i64 8, label %7
    i64 10, label %8
    i64 12, label %8
    i64 23, label %9
    i64 17, label %10
    i64 18, label %11
    i64 19, label %11
    i64 20, label %11
    i64 21, label %11
    i64 22, label %11
    i64 25, label %11
    i64 24, label %11
    i64 50, label %12
    i64 26, label %13
  ]

5:                                                ; preds = %1, %1, %1
  store i32 48, ptr %3, align 4, !tbaa !11
  br label %15

6:                                                ; preds = %1, %1, %1, %1, %1, %1, %1, %1, %1, %1, %1
  store i32 42, ptr %3, align 4, !tbaa !11
  br label %15

7:                                                ; preds = %1, %1
  store i32 51, ptr %3, align 4, !tbaa !11
  br label %15

8:                                                ; preds = %1, %1
  store i32 45, ptr %3, align 4, !tbaa !11
  br label %15

9:                                                ; preds = %1
  store i32 44, ptr %3, align 4, !tbaa !11
  br label %15

10:                                               ; preds = %1
  store i32 80, ptr %3, align 4, !tbaa !11
  br label %15

11:                                               ; preds = %1, %1, %1, %1, %1, %1, %1
  store i32 48, ptr %3, align 4, !tbaa !11
  br label %15

12:                                               ; preds = %1
  store i32 40, ptr %3, align 4, !tbaa !11
  br label %15

13:                                               ; preds = %1
  store i32 43, ptr %3, align 4, !tbaa !11
  br label %15

14:                                               ; preds = %1
  store i32 46, ptr %3, align 4, !tbaa !11
  br label %15

15:                                               ; preds = %14, %13, %12, %11, %10, %9, %8, %7, %6, %5
  %16 = load i32, ptr %3, align 4, !tbaa !11
  call void @llvm.lifetime.end.p0(i64 4, ptr %3) #6
  ret i32 %16
}