; Function Attrs: mustprogress nofree norecurse nosync nounwind willreturn memory(none) uwtable
define hidden range(i32 40, 81) i32 @ssl_verify_alarm_type(i64 noundef %0) local_unnamed_addr #4 {
  %switch.tableidx = add i64 %0, -2
  %2 = icmp ult i64 %switch.tableidx, 49
  br i1 %2, label %switch.lookup, label %3

switch.lookup:                                    ; preds = %1
  %switch.gep = getelementptr inbounds nuw [49 x i32], ptr @switch.table.ssl_verify_alarm_type, i64 0, i64 %switch.tableidx
  %switch.load = load i32, ptr %switch.gep, align 4
  br label %3

3:                                                ; preds = %1, %switch.lookup
  %.0 = phi i32 [ %switch.load, %switch.lookup ], [ 46, %1 ]
  ret i32 %.0
}